; ModuleID = '43/1624.c'
source_filename = "43/1624.c"
target datalayout = "e-m:e-p270:32:32-p271:32:32-p272:64:64-i64:64-f80:128-n8:16:32:64-S128"
target triple = "x86_64-pc-linux-gnu"

@.str = private unnamed_addr constant [3 x i8] c"%d\00", align 1
@.str.1 = private unnamed_addr constant [7 x i8] c"%d %d\0A\00", align 1

; Function Attrs: noinline nounwind uwtable
define dso_local i32 @p(i32 %0) #0 {
  %2 = alloca i32, align 4
  %3 = alloca i32, align 4
  %4 = alloca i32, align 4
  store i32 %0, i32* %3, align 4
  store i32 2, i32* %4, align 4
  br label %5

5:                                                ; preds = %18, %1
  %6 = load i32, i32* %4, align 4
  %7 = load i32, i32* %4, align 4
  %8 = mul nsw i32 %6, %7
  %9 = load i32, i32* %3, align 4
  %10 = icmp sle i32 %8, %9
  br i1 %10, label %11, label %21

11:                                               ; preds = %5
  %12 = load i32, i32* %3, align 4
  %13 = load i32, i32* %4, align 4
  %14 = srem i32 %12, %13
  %15 = icmp eq i32 %14, 0
  br i1 %15, label %16, label %17

16:                                               ; preds = %11
  store i32 0, i32* %2, align 4
  br label %22

17:                                               ; preds = %11
  br label %18

18:                                               ; preds = %17
  %19 = load i32, i32* %4, align 4
  %20 = add nsw i32 %19, 1
  store i32 %20, i32* %4, align 4
  br label %5

21:                                               ; preds = %5
  store i32 1, i32* %2, align 4
  br label %22

22:                                               ; preds = %21, %16
  %23 = load i32, i32* %2, align 4
  ret i32 %23
}

; Function Attrs: noinline nounwind uwtable
define dso_local i32 @main() #0 {
  %1 = alloca i32, align 4
  %2 = alloca i32, align 4
  %3 = alloca i32, align 4
  store i32 0, i32* %1, align 4
  %4 = call i32 (i8*, ...) @__isoc99_scanf(i8* getelementptr inbounds ([3 x i8], [3 x i8]* @.str, i64 0, i64 0), i32* %2)
  store i32 3, i32* %3, align 4
  br label %5

5:                                                ; preds = %26, %0
  %6 = load i32, i32* %3, align 4
  %7 = mul nsw i32 2, %6
  %8 = load i32, i32* %2, align 4
  %9 = icmp sle i32 %7, %8
  br i1 %9, label %10, label %29

10:                                               ; preds = %5
  %11 = load i32, i32* %3, align 4
  %12 = call i32 @p(i32 %11)
  %13 = load i32, i32* %2, align 4
  %14 = load i32, i32* %3, align 4
  %15 = sub nsw i32 %13, %14
  %16 = call i32 @p(i32 %15)
  %17 = mul nsw i32 %12, %16
  %18 = icmp ne i32 %17, 0
  br i1 %18, label %19, label %25

19:                                               ; preds = %10
  %20 = load i32, i32* %3, align 4
  %21 = load i32, i32* %2, align 4
  %22 = load i32, i32* %3, align 4
  %23 = sub nsw i32 %21, %22
  %24 = call i32 (i8*, ...) @printf(i8* getelementptr inbounds ([7 x i8], [7 x i8]* @.str.1, i64 0, i64 0), i32 %20, i32 %23)
  br label %25

25:                                               ; preds = %19, %10
  br label %26

26:                                               ; preds = %25
  %27 = load i32, i32* %3, align 4
  %28 = add nsw i32 %27, 1
  store i32 %28, i32* %3, align 4
  br label %5

29:                                               ; preds = %5
  %30 = load i32, i32* %1, align 4
  ret i32 %30
}

declare dso_local i32 @__isoc99_scanf(i8*, ...) #1

declare dso_local i32 @printf(i8*, ...) #1


!llvm.module.flags = !{!0}
!llvm.ident = !{!1}

!0 = !{i32 1, !"wchar_size", i32 4}
!1 = !{!"clang version 10.0.0-4ubuntu1 "}
